; ModuleID = '57/199.c'
source_filename = "57/199.c"
target datalayout = "e-m:e-p270:32:32-p271:32:32-p272:64:64-i64:64-f80:128-n8:16:32:64-S128"
target triple = "x86_64-pc-linux-gnu"

@.str = private unnamed_addr constant [3 x i8] c"%d\00", align 1
@.str.1 = private unnamed_addr constant [3 x i8] c"%s\00", align 1
@.str.2 = private unnamed_addr constant [4 x i8] c"%s\0A\00", align 1

; Function Attrs: noinline nounwind uwtable
define dso_local i8* @fun(i8* %0) #0 {
  %2 = alloca i8*, align 8
  %3 = alloca i32, align 4
  store i8* %0, i8** %2, align 8
  %4 = load i8*, i8** %2, align 8
  %5 = call i64 @strlen(i8* %4) #4
  %6 = trunc i64 %5 to i32
  store i32 %6, i32* %3, align 4
  %7 = load i8*, i8** %2, align 8
  %8 = load i32, i32* %3, align 4
  %9 = sub nsw i32 %8, 1
  %10 = sext i32 %9 to i64
  %11 = getelementptr inbounds i8, i8* %7, i64 %10
  %12 = load i8, i8* %11, align 1
  %13 = sext i8 %12 to i32
  %14 = icmp eq i32 %13, 114
  br i1 %14, label %15, label %36

15:                                               ; preds = %1
  %16 = load i8*, i8** %2, align 8
  %17 = load i32, i32* %3, align 4
  %18 = sub nsw i32 %17, 2
  %19 = sext i32 %18 to i64
  %20 = getelementptr inbounds i8, i8* %16, i64 %19
  %21 = load i8, i8* %20, align 1
  %22 = sext i8 %21 to i32
  %23 = icmp eq i32 %22, 101
  br i1 %23, label %24, label %36

24:                                               ; preds = %15
  %25 = load i8*, i8** %2, align 8
  %26 = load i8*, i8** %2, align 8
  %27 = load i32, i32* %3, align 4
  %28 = sub nsw i32 %27, 2
  %29 = sext i32 %28 to i64
  %30 = call i8* @strncpy(i8* %25, i8* %26, i64 %29) #5
  %31 = load i8*, i8** %2, align 8
  %32 = load i32, i32* %3, align 4
  %33 = sub nsw i32 %32, 2
  %34 = sext i32 %33 to i64
  %35 = getelementptr inbounds i8, i8* %31, i64 %34
  store i8 0, i8* %35, align 1
  br label %36

36:                                               ; preds = %24, %15, %1
  %37 = load i8*, i8** %2, align 8
  %38 = load i32, i32* %3, align 4
  %39 = sub nsw i32 %38, 1
  %40 = sext i32 %39 to i64
  %41 = getelementptr inbounds i8, i8* %37, i64 %40
  %42 = load i8, i8* %41, align 1
  %43 = sext i8 %42 to i32
  %44 = icmp eq i32 %43, 121
  br i1 %44, label %45, label %66

45:                                               ; preds = %36
  %46 = load i8*, i8** %2, align 8
  %47 = load i32, i32* %3, align 4
  %48 = sub nsw i32 %47, 2
  %49 = sext i32 %48 to i64
  %50 = getelementptr inbounds i8, i8* %46, i64 %49
  %51 = load i8, i8* %50, align 1
  %52 = sext i8 %51 to i32
  %53 = icmp eq i32 %52, 108
  br i1 %53, label %54, label %66

54:                                               ; preds = %45
  %55 = load i8*, i8** %2, align 8
  %56 = load i8*, i8** %2, align 8
  %57 = load i32, i32* %3, align 4
  %58 = sub nsw i32 %57, 2
  %59 = sext i32 %58 to i64
  %60 = call i8* @strncpy(i8* %55, i8* %56, i64 %59) #5
  %61 = load i8*, i8** %2, align 8
  %62 = load i32, i32* %3, align 4
  %63 = sub nsw i32 %62, 2
  %64 = sext i32 %63 to i64
  %65 = getelementptr inbounds i8, i8* %61, i64 %64
  store i8 0, i8* %65, align 1
  br label %66

66:                                               ; preds = %54, %45, %36
  %67 = load i8*, i8** %2, align 8
  %68 = load i32, i32* %3, align 4
  %69 = sub nsw i32 %68, 1
  %70 = sext i32 %69 to i64
  %71 = getelementptr inbounds i8, i8* %67, i64 %70
  %72 = load i8, i8* %71, align 1
  %73 = sext i8 %72 to i32
  %74 = icmp eq i32 %73, 103
  br i1 %74, label %75, label %105

75:                                               ; preds = %66
  %76 = load i8*, i8** %2, align 8
  %77 = load i32, i32* %3, align 4
  %78 = sub nsw i32 %77, 2
  %79 = sext i32 %78 to i64
  %80 = getelementptr inbounds i8, i8* %76, i64 %79
  %81 = load i8, i8* %80, align 1
  %82 = sext i8 %81 to i32
  %83 = icmp eq i32 %82, 110
  br i1 %83, label %84, label %105

84:                                               ; preds = %75
  %85 = load i8*, i8** %2, align 8
  %86 = load i32, i32* %3, align 4
  %87 = sub nsw i32 %86, 3
  %88 = sext i32 %87 to i64
  %89 = getelementptr inbounds i8, i8* %85, i64 %88
  %90 = load i8, i8* %89, align 1
  %91 = sext i8 %90 to i32
  %92 = icmp eq i32 %91, 105
  br i1 %92, label %93, label %105

93:                                               ; preds = %84
  %94 = load i8*, i8** %2, align 8
  %95 = load i8*, i8** %2, align 8
  %96 = load i32, i32* %3, align 4
  %97 = sub nsw i32 %96, 3
  %98 = sext i32 %97 to i64
  %99 = call i8* @strncpy(i8* %94, i8* %95, i64 %98) #5
  %100 = load i8*, i8** %2, align 8
  %101 = load i32, i32* %3, align 4
  %102 = sub nsw i32 %101, 3
  %103 = sext i32 %102 to i64
  %104 = getelementptr inbounds i8, i8* %100, i64 %103
  store i8 0, i8* %104, align 1
  br label %105

105:                                              ; preds = %93, %84, %75, %66
  %106 = load i8*, i8** %2, align 8
  ret i8* %106
}

; Function Attrs: nounwind readonly
declare dso_local i64 @strlen(i8*) #1

; Function Attrs: nounwind
declare dso_local i8* @strncpy(i8*, i8*, i64) #2

; Function Attrs: noinline nounwind uwtable
define dso_local void @main() #0 {
  %1 = alloca i32, align 4
  %2 = alloca i32, align 4
  %3 = alloca [50 x [50 x i8]], align 16
  %4 = call i32 (i8*, ...) @__isoc99_scanf(i8* getelementptr inbounds ([3 x i8], [3 x i8]* @.str, i64 0, i64 0), i32* %1)
  store i32 0, i32* %2, align 4
  br label %5

5:                                                ; preds = %15, %0
  %6 = load i32, i32* %2, align 4
  %7 = load i32, i32* %1, align 4
  %8 = icmp slt i32 %6, %7
  br i1 %8, label %9, label %18

9:                                                ; preds = %5
  %10 = load i32, i32* %2, align 4
  %11 = sext i32 %10 to i64
  %12 = getelementptr inbounds [50 x [50 x i8]], [50 x [50 x i8]]* %3, i64 0, i64 %11
  %13 = getelementptr inbounds [50 x i8], [50 x i8]* %12, i64 0, i64 0
  %14 = call i32 (i8*, ...) @__isoc99_scanf(i8* getelementptr inbounds ([3 x i8], [3 x i8]* @.str.1, i64 0, i64 0), i8* %13)
  br label %15

15:                                               ; preds = %9
  %16 = load i32, i32* %2, align 4
  %17 = add nsw i32 %16, 1
  store i32 %17, i32* %2, align 4
  br label %5

18:                                               ; preds = %5
  store i32 0, i32* %2, align 4
  br label %19

19:                                               ; preds = %30, %18
  %20 = load i32, i32* %2, align 4
  %21 = load i32, i32* %1, align 4
  %22 = icmp slt i32 %20, %21
  br i1 %22, label %23, label %33

23:                                               ; preds = %19
  %24 = load i32, i32* %2, align 4
  %25 = sext i32 %24 to i64
  %26 = getelementptr inbounds [50 x [50 x i8]], [50 x [50 x i8]]* %3, i64 0, i64 %25
  %27 = getelementptr inbounds [50 x i8], [50 x i8]* %26, i64 0, i64 0
  %28 = call i8* @fun(i8* %27)
  %29 = call i32 (i8*, ...) @printf(i8* getelementptr inbounds ([4 x i8], [4 x i8]* @.str.2, i64 0, i64 0), i8* %28)
  br label %30

30:                                               ; preds = %23
  %31 = load i32, i32* %2, align 4
  %32 = add nsw i32 %31, 1
  store i32 %32, i32* %2, align 4
  br label %19

33:                                               ; preds = %19
  ret void
}

declare dso_local i32 @__isoc99_scanf(i8*, ...) #3

declare dso_local i32 @printf(i8*, ...) #3


!llvm.module.flags = !{!0}
!llvm.ident = !{!1}

!0 = !{i32 1, !"wchar_size", i32 4}
!1 = !{!"clang version 10.0.0-4ubuntu1 "}
