; ModuleID = 'source-C-CXX/56/199.c'
source_filename = "source-C-CXX/56/199.c"
target datalayout = "e-m:e-p270:32:32-p271:32:32-p272:64:64-i64:64-f80:128-n8:16:32:64-S128"
target triple = "x86_64-pc-linux-gnu"

@.str = private unnamed_addr constant [3 x i8] c"%d\00", align 1
@.str.1 = private unnamed_addr constant [3 x i8] c"%s\00", align 1

; Function Attrs: mustprogress nofree nounwind sspstrong uwtable willreturn
define dso_local i8* @fun(i8* returned %0) local_unnamed_addr #0 {
  %2 = tail call i64 @strlen(i8* noundef nonnull dereferenceable(1) %0) #7
  %3 = shl i64 %2, 32
  %4 = add i64 %3, -4294967296
  %5 = ashr exact i64 %4, 32
  %6 = getelementptr inbounds i8, i8* %0, i64 %5
  %7 = load i8, i8* %6, align 1, !tbaa !5
  %8 = icmp eq i8 %7, 114
  br i1 %8, label %9, label %18

9:                                                ; preds = %1
  %10 = add i64 %3, -8589934592
  %11 = ashr exact i64 %10, 32
  %12 = getelementptr inbounds i8, i8* %0, i64 %11
  %13 = load i8, i8* %12, align 1, !tbaa !5
  %14 = icmp eq i8 %13, 101
  br i1 %14, label %15, label %47

15:                                               ; preds = %9
  %16 = tail call i8* @strncpy(i8* noundef nonnull dereferenceable(1) %0, i8* nonnull %0, i64 %11) #8
  store i8 0, i8* %12, align 1, !tbaa !5
  %17 = load i8, i8* %6, align 1, !tbaa !5
  br label %18

18:                                               ; preds = %15, %1
  %19 = phi i8 [ %7, %1 ], [ %17, %15 ]
  %20 = icmp eq i8 %19, 121
  br i1 %20, label %21, label %30

21:                                               ; preds = %18
  %22 = add i64 %3, -8589934592
  %23 = ashr exact i64 %22, 32
  %24 = getelementptr inbounds i8, i8* %0, i64 %23
  %25 = load i8, i8* %24, align 1, !tbaa !5
  %26 = icmp eq i8 %25, 108
  br i1 %26, label %27, label %47

27:                                               ; preds = %21
  %28 = tail call i8* @strncpy(i8* noundef nonnull dereferenceable(1) %0, i8* nonnull %0, i64 %23) #8
  store i8 0, i8* %24, align 1, !tbaa !5
  %29 = load i8, i8* %6, align 1, !tbaa !5
  br label %30

30:                                               ; preds = %27, %18
  %31 = phi i8 [ %29, %27 ], [ %19, %18 ]
  %32 = icmp eq i8 %31, 103
  br i1 %32, label %33, label %47

33:                                               ; preds = %30
  %34 = add i64 %3, -8589934592
  %35 = ashr exact i64 %34, 32
  %36 = getelementptr inbounds i8, i8* %0, i64 %35
  %37 = load i8, i8* %36, align 1, !tbaa !5
  %38 = icmp eq i8 %37, 110
  br i1 %38, label %39, label %47

39:                                               ; preds = %33
  %40 = add i64 %3, -12884901888
  %41 = ashr exact i64 %40, 32
  %42 = getelementptr inbounds i8, i8* %0, i64 %41
  %43 = load i8, i8* %42, align 1, !tbaa !5
  %44 = icmp eq i8 %43, 105
  br i1 %44, label %45, label %47

45:                                               ; preds = %39
  %46 = tail call i8* @strncpy(i8* noundef nonnull dereferenceable(1) %0, i8* nonnull %0, i64 %41) #8
  store i8 0, i8* %42, align 1, !tbaa !5
  br label %47

47:                                               ; preds = %9, %21, %45, %39, %33, %30
  ret i8* %0
}

; Function Attrs: argmemonly mustprogress nofree nosync nounwind willreturn
declare void @llvm.lifetime.start.p0i8(i64 immarg, i8* nocapture) #1

; Function Attrs: argmemonly mustprogress nofree nounwind readonly willreturn
declare i64 @strlen(i8* nocapture) local_unnamed_addr #2

; Function Attrs: argmemonly mustprogress nofree nounwind willreturn
declare i8* @strncpy(i8* noalias returned writeonly, i8* noalias nocapture readonly, i64) local_unnamed_addr #3

; Function Attrs: argmemonly mustprogress nofree nosync nounwind willreturn
declare void @llvm.lifetime.end.p0i8(i64 immarg, i8* nocapture) #1

; Function Attrs: nofree nounwind sspstrong uwtable
define dso_local void @main() local_unnamed_addr #4 {
  %1 = alloca i32, align 4
  %2 = alloca [50 x [50 x i8]], align 16
  %3 = bitcast i32* %1 to i8*
  call void @llvm.lifetime.start.p0i8(i64 4, i8* nonnull %3) #8
  %4 = getelementptr inbounds [50 x [50 x i8]], [50 x [50 x i8]]* %2, i64 0, i64 0, i64 0
  call void @llvm.lifetime.start.p0i8(i64 2500, i8* nonnull %4) #8
  %5 = call i32 (i8*, ...) @__isoc99_scanf(i8* getelementptr inbounds ([3 x i8], [3 x i8]* @.str, i64 0, i64 0), i32* nonnull %1)
  %6 = load i32, i32* %1, align 4, !tbaa !8
  %7 = icmp sgt i32 %6, 0
  br i1 %7, label %10, label %27

8:                                                ; preds = %10
  %9 = icmp sgt i32 %15, 0
  br i1 %9, label %18, label %27

10:                                               ; preds = %0, %10
  %11 = phi i64 [ %14, %10 ], [ 0, %0 ]
  %12 = getelementptr inbounds [50 x [50 x i8]], [50 x [50 x i8]]* %2, i64 0, i64 %11, i64 0
  %13 = call i32 (i8*, ...) @__isoc99_scanf(i8* getelementptr inbounds ([3 x i8], [3 x i8]* @.str.1, i64 0, i64 0), i8* nonnull %12)
  %14 = add nuw nsw i64 %11, 1
  %15 = load i32, i32* %1, align 4, !tbaa !8
  %16 = sext i32 %15 to i64
  %17 = icmp slt i64 %14, %16
  br i1 %17, label %10, label %8, !llvm.loop !10

18:                                               ; preds = %8, %18
  %19 = phi i64 [ %23, %18 ], [ 0, %8 ]
  %20 = getelementptr inbounds [50 x [50 x i8]], [50 x [50 x i8]]* %2, i64 0, i64 %19, i64 0
  %21 = call i8* @fun(i8* nonnull %20)
  %22 = call i32 @puts(i8* nonnull dereferenceable(1) %20)
  %23 = add nuw nsw i64 %19, 1
  %24 = load i32, i32* %1, align 4, !tbaa !8
  %25 = sext i32 %24 to i64
  %26 = icmp slt i64 %23, %25
  br i1 %26, label %18, label %27, !llvm.loop !12

27:                                               ; preds = %18, %0, %8
  call void @llvm.lifetime.end.p0i8(i64 2500, i8* nonnull %4) #8
  call void @llvm.lifetime.end.p0i8(i64 4, i8* nonnull %3) #8
  ret void
}

; Function Attrs: nofree nounwind
declare noundef i32 @__isoc99_scanf(i8* nocapture noundef readonly, ...) local_unnamed_addr #5

; Function Attrs: nofree nounwind
declare noundef i32 @puts(i8* nocapture noundef readonly) local_unnamed_addr #6


!llvm.module.flags = !{!0, !1, !2, !3}
!llvm.ident = !{!4}

!0 = !{i32 1, !"wchar_size", i32 4}
!1 = !{i32 7, !"PIC Level", i32 2}
!2 = !{i32 7, !"PIE Level", i32 2}
!3 = !{i32 7, !"uwtable", i32 1}
!4 = !{!"clang version 13.0.0"}
!5 = !{!6, !6, i64 0}
!6 = !{!"omnipotent char", !7, i64 0}
!7 = !{!"Simple C/C++ TBAA"}
!8 = !{!9, !9, i64 0}
!9 = !{!"int", !6, i64 0}
!10 = distinct !{!10, !11}
!11 = !{!"llvm.loop.mustprogress"}
!12 = distinct !{!12, !11}
